; Function Attrs: nounwind uwtable
define i32 @Abc_NodeMffcInside(ptr noundef %0, ptr noundef readonly captures(none) %1, ptr noundef %2) local_unnamed_addr #0 {
  %4 = getelementptr i8, ptr %1, i64 4
  %.val1821 = load i32, ptr %4, align 4
  %5 = icmp sgt i32 %.val1821, 0
  br i1 %5, label %.lr.ph, label %.critedge

.lr.ph:                                           ; preds = %3
  %6 = getelementptr i8, ptr %1, i64 8
  br label %7

7:                                                ; preds = %.lr.ph, %7
  %indvars.iv = phi i64 [ 0, %.lr.ph ], [ %indvars.iv.next, %7 ]
  %.val20 = load ptr, ptr %6, align 8
  %8 = getelementptr inbounds nuw ptr, ptr %.val20, i64 %indvars.iv
  %9 = load ptr, ptr %8, align 8
  %10 = getelementptr inbounds nuw i8, ptr %9, i64 44
  %11 = load i32, ptr %10, align 4
  %12 = add nsw i32 %11, 1
  store i32 %12, ptr %10, align 4
  %indvars.iv.next = add nuw nsw i64 %indvars.iv, 1
  %.val18 = load i32, ptr %4, align 4
  %13 = sext i32 %.val18 to i64
  %14 = icmp slt i64 %indvars.iv.next, %13
  br i1 %14, label %7, label %.critedge, !llvm.loop !10

.critedge:                                        ; preds = %7, %3
  %15 = tail call i32 @Abc_NodeDeref_rec(ptr noundef %0)
  %.not.i = icmp eq ptr %2, null
  br i1 %.not.i, label %18, label %16

16:                                               ; preds = %.critedge
  %17 = getelementptr inbounds nuw i8, ptr %2, i64 4
  store i32 0, ptr %17, align 4
  br label %18

18:                                               ; preds = %16, %.critedge
  %19 = load ptr, ptr %0, align 8
  %20 = getelementptr inbounds nuw i8, ptr %19, i64 232
  %21 = load ptr, ptr %20, align 8
  %.not.i.i = icmp eq ptr %21, null
  br i1 %.not.i.i, label %22, label %Abc_NodeMffcConeSupp.exit

22:                                               ; preds = %18
  %23 = getelementptr inbounds nuw i8, ptr %19, i64 224
  %24 = getelementptr i8, ptr %19, i64 32
  %.val.i.i = load ptr, ptr %24, align 8
  %25 = getelementptr i8, ptr %.val.i.i, i64 4
  %.val.val.i.i = load i32, ptr %25, align 4
  %26 = add nsw i32 %.val.val.i.i, 500
  %27 = load i32, ptr %23, align 8
  %.not.i.i.i.i = icmp slt i32 %27, %26
  br i1 %.not.i.i.i.i, label %28, label %Vec_IntGrow.exit.i.i.i

28:                                               ; preds = %22
  %29 = sext i32 %26 to i64
  %30 = shl nsw i64 %29, 2
  %31 = tail call noalias ptr @malloc(i64 noundef %30) #9
  store ptr %31, ptr %20, align 8
  store i32 %26, ptr %23, align 8
  br label %Vec_IntGrow.exit.i.i.i

Vec_IntGrow.exit.i.i.i:                           ; preds = %28, %22
  %32 = icmp sgt i32 %.val.val.i.i, -500
  br i1 %32, label %.lr.ph.i.i.i, label %Abc_NtkIncrementTravId.exit.sink.split.i

.lr.ph.i.i.i:                                     ; preds = %Vec_IntGrow.exit.i.i.i
  %wide.trip.count.i.i.i = zext nneg i32 %26 to i64
  br label %33

33:                                               ; preds = %33, %.lr.ph.i.i.i
  %indvars.iv.i.i.i = phi i64 [ 0, %.lr.ph.i.i.i ], [ %indvars.iv.next.i.i.i, %33 ]
  %34 = load ptr, ptr %20, align 8
  %35 = getelementptr inbounds nuw i32, ptr %34, i64 %indvars.iv.i.i.i
  store i32 0, ptr %35, align 4
  %indvars.iv.next.i.i.i = add nuw nsw i64 %indvars.iv.i.i.i, 1
  %exitcond.not.i.i.i = icmp eq i64 %indvars.iv.next.i.i.i, %wide.trip.count.i.i.i
  br i1 %exitcond.not.i.i.i, label %Abc_NtkIncrementTravId.exit.sink.split.i, label %33, !llvm.loop !8

Abc_NtkIncrementTravId.exit.sink.split.i:         ; preds = %33, %Vec_IntGrow.exit.i.i.i
  %36 = getelementptr inbounds nuw i8, ptr %19, i64 228
  store i32 %26, ptr %36, align 4
  br label %Abc_NodeMffcConeSupp.exit

Abc_NodeMffcConeSupp.exit:                        ; preds = %18, %Abc_NtkIncrementTravId.exit.sink.split.i
  %37 = getelementptr inbounds nuw i8, ptr %19, i64 216
  %38 = load i32, ptr %37, align 8
  %39 = add nsw i32 %38, 1
  store i32 %39, ptr %37, align 8
  tail call void @Abc_NodeMffcConeSupp_rec(ptr noundef nonnull %0, ptr noundef %2, ptr noundef null, i32 noundef 1)
  %40 = tail call i32 @Abc_NodeRef_rec(ptr noundef nonnull %0)
  %.val23 = load i32, ptr %4, align 4
  %41 = icmp sgt i32 %.val23, 0
  br i1 %41, label %.lr.ph25, label %.critedge2

.lr.ph25:                                         ; preds = %Abc_NodeMffcConeSupp.exit
  %42 = getelementptr i8, ptr %1, i64 8
  br label %43

43:                                               ; preds = %.lr.ph25, %43
  %indvars.iv27 = phi i64 [ 0, %.lr.ph25 ], [ %indvars.iv.next28, %43 ]
  %.val19 = load ptr, ptr %42, align 8
  %44 = getelementptr inbounds nuw ptr, ptr %.val19, i64 %indvars.iv27
  %45 = load ptr, ptr %44, align 8
  %46 = getelementptr inbounds nuw i8, ptr %45, i64 44
  %47 = load i32, ptr %46, align 4
  %48 = add nsw i32 %47, -1
  store i32 %48, ptr %46, align 4
  %indvars.iv.next28 = add nuw nsw i64 %indvars.iv27, 1
  %.val = load i32, ptr %4, align 4
  %49 = sext i32 %.val to i64
  %50 = icmp slt i64 %indvars.iv.next28, %49
  br i1 %50, label %43, label %.critedge2, !llvm.loop !11

.critedge2:                                       ; preds = %43, %Abc_NodeMffcConeSupp.exit
  ret i32 %15
}